target datalayout = "e-m:e-p270:32:32-p271:32:32-p272:64:64-i64:64-i128:128-f80:128-n8:16:32:64-S128"
target triple = "x86_64-pc-linux-gnu"

%"class.gmx::AnalysisDataProxy" = type <{ %"class.gmx::AbstractAnalysisData", %"class.gmx::IAnalysisDataModule", ptr, i32, i32, i8, [7 x i8] }>
%"class.gmx::AbstractAnalysisData" = type { ptr, %"class.std::unique_ptr" }
%"class.std::unique_ptr" = type { %"struct.std::__uniq_ptr_data" }
%"struct.std::__uniq_ptr_data" = type { %"class.std::__uniq_ptr_impl" }
%"class.std::__uniq_ptr_impl" = type { %"class.std::tuple" }
%"class.std::tuple" = type { %"struct.std::_Tuple_impl" }
%"struct.std::_Tuple_impl" = type { %"struct.std::_Head_base.4" }
%"struct.std::_Head_base.4" = type { ptr }
%"class.gmx::IAnalysisDataModule" = type { ptr }
%"class.gmx::AnalysisDataFrameRef" = type { %"class.gmx::AnalysisDataFrameHeader", %"class.gmx::ArrayRef", %"class.gmx::ArrayRef.0" }
%"class.gmx::AnalysisDataFrameHeader" = type { i32, float, float }
%"class.gmx::ArrayRef" = type { %"struct.gmx::ArrayRefIter", %"struct.gmx::ArrayRefIter" }
%"struct.gmx::ArrayRefIter" = type { ptr }
%"class.gmx::ArrayRef.0" = type { %"struct.gmx::ArrayRefIter.1", %"struct.gmx::ArrayRefIter.1" }
%"struct.gmx::ArrayRefIter.1" = type { ptr }

; Function Attrs: mustprogress nounwind uwtable
define linkonce_odr noundef zeroext i1 @_ZNK3gmx23AnalysisDataFrameHeader7isValidEv(ptr noundef nonnull align 4 dereferenceable(12) %0) #0 comdat align 2 {
  %2 = alloca ptr, align 8
  store ptr %0, ptr %2, align 8
  %3 = load ptr, ptr %2, align 8
  %4 = getelementptr inbounds %"class.gmx::AnalysisDataFrameHeader", ptr %3, i32 0, i32 0
  %5 = load i32, ptr %4, align 4
  %6 = icmp sge i32 %5, 0
  ret i1 %6
}

; Function Attrs: mustprogress nounwind uwtable
define linkonce_odr noundef nonnull align 4 dereferenceable(12) ptr @_ZNK3gmx20AnalysisDataFrameRef6headerEv(ptr noundef nonnull align 8 dereferenceable(48) %0) #0 comdat align 2 {
  %2 = alloca ptr, align 8
  store ptr %0, ptr %2, align 8
  %3 = load ptr, ptr %2, align 8
  %4 = getelementptr inbounds %"class.gmx::AnalysisDataFrameRef", ptr %3, i32 0, i32 0
  ret ptr %4
}

; Function Attrs: mustprogress uwtable
define linkonce_odr noundef zeroext i1 @_ZNK3gmx20AnalysisDataFrameRef7isValidEv(ptr noundef nonnull align 8 dereferenceable(48) %0) #1 comdat align 2 {
  %2 = alloca ptr, align 8
  store ptr %0, ptr %2, align 8
  %3 = load ptr, ptr %2, align 8
  %4 = call noundef nonnull align 4 dereferenceable(12) ptr @_ZNK3gmx20AnalysisDataFrameRef6headerEv(ptr noundef nonnull align 8 dereferenceable(48) %3)
  %5 = call noundef zeroext i1 @_ZNK3gmx23AnalysisDataFrameHeader7isValidEv(ptr noundef nonnull align 4 dereferenceable(12) %4)
  ret i1 %5
}

; Function Attrs: mustprogress uwtable
define void @_ZNK3gmx17AnalysisDataProxy23tryGetDataFrameInternalEi(ptr dead_on_unwind noalias writable sret(%"class.gmx::AnalysisDataFrameRef") align 8 %0, ptr noundef nonnull align 8 dereferenceable(41) %1, i32 noundef %2) unnamed_addr #1 align 2 {
  %4 = alloca ptr, align 8
  %5 = alloca i32, align 4
  %6 = alloca %"class.gmx::AnalysisDataFrameRef", align 8
  store ptr %1, ptr %4, align 8
  store i32 %2, ptr %5, align 4
  %7 = load ptr, ptr %4, align 8
  %8 = getelementptr inbounds %"class.gmx::AnalysisDataProxy", ptr %7, i32 0, i32 2
  %9 = load ptr, ptr %8, align 8
  %10 = load i32, ptr %5, align 4
  call void @_ZNK3gmx20AbstractAnalysisData15tryGetDataFrameEi(ptr dead_on_unwind writable sret(%"class.gmx::AnalysisDataFrameRef") align 8 %6, ptr noundef nonnull align 8 dereferenceable(16) %9, i32 noundef %10)
  %11 = call noundef zeroext i1 @_ZNK3gmx20AnalysisDataFrameRef7isValidEv(ptr noundef nonnull align 8 dereferenceable(48) %6)
  br i1 %11, label %13, label %12

12:                                               ; preds = %3
  call void @_ZN3gmx20AnalysisDataFrameRefC1Ev(ptr noundef nonnull align 8 dereferenceable(48) %0)
  br label %18

13:                                               ; preds = %3
  %14 = getelementptr inbounds %"class.gmx::AnalysisDataProxy", ptr %7, i32 0, i32 3
  %15 = load i32, ptr %14, align 8
  %16 = getelementptr inbounds %"class.gmx::AnalysisDataProxy", ptr %7, i32 0, i32 4
  %17 = load i32, ptr %16, align 4
  call void @_ZN3gmx20AnalysisDataFrameRefC1ERKS0_ii(ptr noundef nonnull align 8 dereferenceable(48) %0, ptr noundef nonnull align 8 dereferenceable(48) %6, i32 noundef %15, i32 noundef %17)
  br label %18

18:                                               ; preds = %13, %12
  ret void
}