; Function Attrs: mustprogress uwtable
define void @_ZNK3gmx17AnalysisDataProxy23tryGetDataFrameInternalEi(ptr dead_on_unwind noalias writable sret(%"class.gmx::AnalysisDataFrameRef") align 8 %0, ptr nocapture noundef nonnull readonly align 8 dereferenceable(41) %1, i32 noundef %2) unnamed_addr #1 align 2 {
  %4 = alloca %"class.gmx::AnalysisDataFrameRef", align 8
  %5 = getelementptr inbounds i8, ptr %1, i64 24
  %6 = load ptr, ptr %5, align 8
  call void @_ZNK3gmx20AbstractAnalysisData15tryGetDataFrameEi(ptr dead_on_unwind nonnull writable sret(%"class.gmx::AnalysisDataFrameRef") align 8 %4, ptr noundef nonnull align 8 dereferenceable(16) %6, i32 noundef %2)
  %7 = load i32, ptr %4, align 8
  %8 = icmp sgt i32 %7, -1
  br i1 %8, label %10, label %9

9:                                                ; preds = %3
  call void @_ZN3gmx20AnalysisDataFrameRefC1Ev(ptr noundef nonnull align 8 dereferenceable(48) %0)
  br label %15

10:                                               ; preds = %3
  %11 = getelementptr inbounds i8, ptr %1, i64 32
  %12 = load i32, ptr %11, align 8
  %13 = getelementptr inbounds i8, ptr %1, i64 36
  %14 = load i32, ptr %13, align 4
  call void @_ZN3gmx20AnalysisDataFrameRefC1ERKS0_ii(ptr noundef nonnull align 8 dereferenceable(48) %0, ptr noundef nonnull align 8 dereferenceable(48) %4, i32 noundef %12, i32 noundef %14)
  br label %15

15:                                               ; preds = %10, %9
  ret void
}